target datalayout = "e-m:e-p270:32:32-p271:32:32-p272:64:64-i64:64-i128:128-f80:128-n8:16:32:64-S128"
target triple = "x86_64-pc-linux-gnu"

%"struct.arrow_vendored_private::flatbuffers::Offset.66" = type { i32 }
%"class.std::vector.141" = type { %"struct.std::_Vector_base.142" }
%"struct.std::_Vector_base.142" = type { %"struct.std::_Vector_base<arrow_vendored_private::flatbuffers::Offset<org::apache::arrow::flatbuf::Field>, std::allocator<arrow_vendored_private::flatbuffers::Offset<org::apache::arrow::flatbuf::Field>>>::_Vector_impl" }
%"struct.std::_Vector_base<arrow_vendored_private::flatbuffers::Offset<org::apache::arrow::flatbuf::Field>, std::allocator<arrow_vendored_private::flatbuffers::Offset<org::apache::arrow::flatbuf::Field>>>::_Vector_impl" = type { %"struct.std::_Vector_base<arrow_vendored_private::flatbuffers::Offset<org::apache::arrow::flatbuf::Field>, std::allocator<arrow_vendored_private::flatbuffers::Offset<org::apache::arrow::flatbuf::Field>>>::_Vector_impl_data" }
%"struct.std::_Vector_base<arrow_vendored_private::flatbuffers::Offset<org::apache::arrow::flatbuf::Field>, std::allocator<arrow_vendored_private::flatbuffers::Offset<org::apache::arrow::flatbuf::Field>>>::_Vector_impl_data" = type { ptr, ptr, ptr }
%"class.arrow::ipc::internal::FieldPosition" = type { ptr, i32, i32 }
%"class.arrow::ipc::internal::(anonymous namespace)::FieldToFlatbufferVisitor" = type { ptr, ptr, %"class.arrow::ipc::internal::FieldPosition", i8, %"struct.arrow_vendored_private::flatbuffers::Offset.66", %"class.std::vector.141", %"class.std::unordered_map" }
%"class.std::unordered_map" = type { %"class.std::_Hashtable" }
%"class.std::_Hashtable" = type { ptr, i64, %"struct.std::__detail::_Hash_node_base", i64, %"struct.std::__detail::_Prime_rehash_policy", ptr }
%"struct.std::__detail::_Hash_node_base" = type { ptr }
%"struct.std::__detail::_Prime_rehash_policy" = type { float, i64 }

; Function Attrs: mustprogress nounwind uwtable
define linkonce_odr void @_ZNSt15__new_allocatorIN22arrow_vendored_private11flatbuffers6OffsetIN3org6apache5arrow7flatbuf5FieldEEEE10deallocateEPS8_m(ptr noundef nonnull align 1 dereferenceable(1) %0, ptr noundef %1, i64 noundef %2) #0 comdat align 2 {
  %4 = alloca ptr, align 8
  %5 = alloca ptr, align 8
  %6 = alloca i64, align 8
  store ptr %0, ptr %4, align 8, !tbaa !544
  store ptr %1, ptr %5, align 8, !tbaa !499
  store i64 %2, ptr %6, align 8, !tbaa !64
  %7 = load ptr, ptr %5, align 8, !tbaa !499
  %8 = load i64, ptr %6, align 8, !tbaa !64
  %9 = mul i64 %8, 4
  call void @_ZdlPvm(ptr noundef %7, i64 noundef %9) #24
  ret void
}

; Function Attrs: mustprogress uwtable
define linkonce_odr void @_ZNSt16allocator_traitsISaIN22arrow_vendored_private11flatbuffers6OffsetIN3org6apache5arrow7flatbuf5FieldEEEEE10deallocateERS9_PS8_m(ptr noundef nonnull align 1 dereferenceable(1) %0, ptr noundef %1, i64 noundef %2) #1 comdat align 2 {
  %4 = alloca ptr, align 8
  %5 = alloca ptr, align 8
  %6 = alloca i64, align 8
  store ptr %0, ptr %4, align 8, !tbaa !540
  store ptr %1, ptr %5, align 8, !tbaa !499
  store i64 %2, ptr %6, align 8, !tbaa !64
  %7 = load ptr, ptr %4, align 8, !tbaa !540
  %8 = load ptr, ptr %5, align 8, !tbaa !499
  %9 = load i64, ptr %6, align 8, !tbaa !64
  call void @_ZNSt15__new_allocatorIN22arrow_vendored_private11flatbuffers6OffsetIN3org6apache5arrow7flatbuf5FieldEEEE10deallocateEPS8_m(ptr noundef nonnull align 1 dereferenceable(1) %7, ptr noundef %8, i64 noundef %9)
  ret void
}

; Function Attrs: mustprogress nounwind uwtable
define linkonce_odr void @_ZNSt12_Destroy_auxILb1EE9__destroyIPN22arrow_vendored_private11flatbuffers6OffsetIN3org6apache5arrow7flatbuf5FieldEEEEEvT_SC_(ptr noundef %0, ptr noundef %1) #0 comdat align 2 {
  %3 = alloca ptr, align 8
  %4 = alloca ptr, align 8
  store ptr %0, ptr %3, align 8, !tbaa !499
  store ptr %1, ptr %4, align 8, !tbaa !499
  ret void
}

; Function Attrs: mustprogress nounwind uwtable
define linkonce_odr void @_ZNSt15__new_allocatorIN22arrow_vendored_private11flatbuffers6OffsetIN3org6apache5arrow7flatbuf5FieldEEEED2Ev(ptr noundef nonnull align 1 dereferenceable(1) %0) unnamed_addr #0 comdat align 2 {
  %2 = alloca ptr, align 8
  store ptr %0, ptr %2, align 8, !tbaa !544
  ret void
}

; Function Attrs: mustprogress uwtable
define linkonce_odr void @_ZNSt12_Vector_baseIN22arrow_vendored_private11flatbuffers6OffsetIN3org6apache5arrow7flatbuf5FieldEEESaIS8_EE13_M_deallocateEPS8_m(ptr noundef nonnull align 8 dereferenceable(24) %0, ptr noundef %1, i64 noundef %2) #1 comdat align 2 {
  %4 = alloca ptr, align 8
  %5 = alloca ptr, align 8
  %6 = alloca i64, align 8
  store ptr %0, ptr %4, align 8, !tbaa !536
  store ptr %1, ptr %5, align 8, !tbaa !499
  store i64 %2, ptr %6, align 8, !tbaa !64
  %7 = load ptr, ptr %4, align 8
  %8 = load ptr, ptr %5, align 8, !tbaa !499
  %9 = icmp ne ptr %8, null
  br i1 %9, label %10, label %14

10:                                               ; preds = %3
  %11 = getelementptr inbounds nuw %"struct.std::_Vector_base.142", ptr %7, i32 0, i32 0
  %12 = load ptr, ptr %5, align 8, !tbaa !499
  %13 = load i64, ptr %6, align 8, !tbaa !64
  call void @_ZNSt16allocator_traitsISaIN22arrow_vendored_private11flatbuffers6OffsetIN3org6apache5arrow7flatbuf5FieldEEEEE10deallocateERS9_PS8_m(ptr noundef nonnull align 1 dereferenceable(1) %11, ptr noundef %12, i64 noundef %13)
  br label %14

14:                                               ; preds = %10, %3
  ret void
}

; Function Attrs: inlinehint mustprogress uwtable
define linkonce_odr void @_ZSt8_DestroyIPN22arrow_vendored_private11flatbuffers6OffsetIN3org6apache5arrow7flatbuf5FieldEEEEvT_SA_(ptr noundef %0, ptr noundef %1) #4 comdat {
  %3 = alloca ptr, align 8
  %4 = alloca ptr, align 8
  store ptr %0, ptr %3, align 8, !tbaa !499
  store ptr %1, ptr %4, align 8, !tbaa !499
  %5 = load ptr, ptr %3, align 8, !tbaa !499
  %6 = load ptr, ptr %4, align 8, !tbaa !499
  call void @_ZNSt12_Destroy_auxILb1EE9__destroyIPN22arrow_vendored_private11flatbuffers6OffsetIN3org6apache5arrow7flatbuf5FieldEEEEEvT_SC_(ptr noundef %5, ptr noundef %6)
  ret void
}

; Function Attrs: noinline noreturn nounwind uwtable
define linkonce_odr hidden void @__clang_call_terminate(ptr noundef %0) #10 comdat {
  %2 = call ptr @__cxa_begin_catch(ptr %0) #21
  call void @_ZSt9terminatev() #22
  unreachable
}

; Function Attrs: mustprogress nounwind uwtable
define linkonce_odr void @_ZNSt12_Vector_baseIN22arrow_vendored_private11flatbuffers6OffsetIN3org6apache5arrow7flatbuf5FieldEEESaIS8_EED2Ev(ptr noundef nonnull align 8 dereferenceable(24) %0) unnamed_addr #0 comdat align 2 personality ptr @__gxx_personality_v0 {
  %2 = alloca ptr, align 8
  store ptr %0, ptr %2, align 8, !tbaa !536
  %3 = load ptr, ptr %2, align 8
  %4 = getelementptr inbounds nuw %"struct.std::_Vector_base.142", ptr %3, i32 0, i32 0
  %5 = getelementptr inbounds nuw %"struct.std::_Vector_base<arrow_vendored_private::flatbuffers::Offset<org::apache::arrow::flatbuf::Field>, std::allocator<arrow_vendored_private::flatbuffers::Offset<org::apache::arrow::flatbuf::Field>>>::_Vector_impl_data", ptr %4, i32 0, i32 0
  %6 = load ptr, ptr %5, align 8, !tbaa !535
  %7 = getelementptr inbounds nuw %"struct.std::_Vector_base.142", ptr %3, i32 0, i32 0
  %8 = getelementptr inbounds nuw %"struct.std::_Vector_base<arrow_vendored_private::flatbuffers::Offset<org::apache::arrow::flatbuf::Field>, std::allocator<arrow_vendored_private::flatbuffers::Offset<org::apache::arrow::flatbuf::Field>>>::_Vector_impl_data", ptr %7, i32 0, i32 2
  %9 = load ptr, ptr %8, align 8, !tbaa !528
  %10 = getelementptr inbounds nuw %"struct.std::_Vector_base.142", ptr %3, i32 0, i32 0
  %11 = getelementptr inbounds nuw %"struct.std::_Vector_base<arrow_vendored_private::flatbuffers::Offset<org::apache::arrow::flatbuf::Field>, std::allocator<arrow_vendored_private::flatbuffers::Offset<org::apache::arrow::flatbuf::Field>>>::_Vector_impl_data", ptr %10, i32 0, i32 0
  %12 = load ptr, ptr %11, align 8, !tbaa !535
  %13 = ptrtoint ptr %9 to i64
  %14 = ptrtoint ptr %12 to i64
  %15 = sub i64 %13, %14
  %16 = sdiv exact i64 %15, 4
  invoke void @_ZNSt12_Vector_baseIN22arrow_vendored_private11flatbuffers6OffsetIN3org6apache5arrow7flatbuf5FieldEEESaIS8_EE13_M_deallocateEPS8_m(ptr noundef nonnull align 8 dereferenceable(24) %3, ptr noundef %6, i64 noundef %16)
          to label %17 unwind label %19

17:                                               ; preds = %1
  %18 = getelementptr inbounds nuw %"struct.std::_Vector_base.142", ptr %3, i32 0, i32 0
  call void @_ZNSt15__new_allocatorIN22arrow_vendored_private11flatbuffers6OffsetIN3org6apache5arrow7flatbuf5FieldEEEED2Ev(ptr noundef nonnull align 8 dereferenceable(24) %18) #21
  ret void

19:                                               ; preds = %1
  %20 = landingpad { ptr, i32 }
          catch ptr null
  %21 = extractvalue { ptr, i32 } %20, 0
  call void @__clang_call_terminate(ptr %21) #22
  unreachable
}

; Function Attrs: inlinehint mustprogress uwtable
define linkonce_odr void @_ZSt8_DestroyIPN22arrow_vendored_private11flatbuffers6OffsetIN3org6apache5arrow7flatbuf5FieldEEES8_EvT_SA_RSaIT0_E(ptr noundef %0, ptr noundef %1, ptr noundef nonnull align 1 dereferenceable(1) %2) #4 comdat {
  %4 = alloca ptr, align 8
  %5 = alloca ptr, align 8
  %6 = alloca ptr, align 8
  store ptr %0, ptr %4, align 8, !tbaa !499
  store ptr %1, ptr %5, align 8, !tbaa !499
  store ptr %2, ptr %6, align 8, !tbaa !540
  %7 = load ptr, ptr %4, align 8, !tbaa !499
  %8 = load ptr, ptr %5, align 8, !tbaa !499
  call void @_ZSt8_DestroyIPN22arrow_vendored_private11flatbuffers6OffsetIN3org6apache5arrow7flatbuf5FieldEEEEvT_SA_(ptr noundef %7, ptr noundef %8)
  ret void
}

; Function Attrs: mustprogress nounwind uwtable
define linkonce_odr noundef nonnull align 1 dereferenceable(1) ptr @_ZNSt12_Vector_baseIN22arrow_vendored_private11flatbuffers6OffsetIN3org6apache5arrow7flatbuf5FieldEEESaIS8_EE19_M_get_Tp_allocatorEv(ptr noundef nonnull align 8 dereferenceable(24) %0) #0 comdat align 2 {
  %2 = alloca ptr, align 8
  store ptr %0, ptr %2, align 8, !tbaa !536
  %3 = load ptr, ptr %2, align 8
  %4 = getelementptr inbounds nuw %"struct.std::_Vector_base.142", ptr %3, i32 0, i32 0
  ret ptr %4
}

; Function Attrs: mustprogress nounwind uwtable
define linkonce_odr void @_ZNSt6vectorIN22arrow_vendored_private11flatbuffers6OffsetIN3org6apache5arrow7flatbuf5FieldEEESaIS8_EED2Ev(ptr noundef nonnull align 8 dereferenceable(24) %0) unnamed_addr #0 comdat align 2 personality ptr @__gxx_personality_v0 {
  %2 = alloca ptr, align 8
  store ptr %0, ptr %2, align 8, !tbaa !497
  %3 = load ptr, ptr %2, align 8
  %4 = getelementptr inbounds nuw %"struct.std::_Vector_base.142", ptr %3, i32 0, i32 0
  %5 = getelementptr inbounds nuw %"struct.std::_Vector_base<arrow_vendored_private::flatbuffers::Offset<org::apache::arrow::flatbuf::Field>, std::allocator<arrow_vendored_private::flatbuffers::Offset<org::apache::arrow::flatbuf::Field>>>::_Vector_impl_data", ptr %4, i32 0, i32 0
  %6 = load ptr, ptr %5, align 8, !tbaa !535
  %7 = getelementptr inbounds nuw %"struct.std::_Vector_base.142", ptr %3, i32 0, i32 0
  %8 = getelementptr inbounds nuw %"struct.std::_Vector_base<arrow_vendored_private::flatbuffers::Offset<org::apache::arrow::flatbuf::Field>, std::allocator<arrow_vendored_private::flatbuffers::Offset<org::apache::arrow::flatbuf::Field>>>::_Vector_impl_data", ptr %7, i32 0, i32 1
  %9 = load ptr, ptr %8, align 8, !tbaa !527
  %10 = call noundef nonnull align 1 dereferenceable(1) ptr @_ZNSt12_Vector_baseIN22arrow_vendored_private11flatbuffers6OffsetIN3org6apache5arrow7flatbuf5FieldEEESaIS8_EE19_M_get_Tp_allocatorEv(ptr noundef nonnull align 8 dereferenceable(24) %3) #21
  invoke void @_ZSt8_DestroyIPN22arrow_vendored_private11flatbuffers6OffsetIN3org6apache5arrow7flatbuf5FieldEEES8_EvT_SA_RSaIT0_E(ptr noundef %6, ptr noundef %9, ptr noundef nonnull align 1 dereferenceable(1) %10)
          to label %11 unwind label %12

11:                                               ; preds = %1
  call void @_ZNSt12_Vector_baseIN22arrow_vendored_private11flatbuffers6OffsetIN3org6apache5arrow7flatbuf5FieldEEESaIS8_EED2Ev(ptr noundef nonnull align 8 dereferenceable(24) %3) #21
  ret void

12:                                               ; preds = %1
  %13 = landingpad { ptr, i32 }
          catch ptr null
  %14 = extractvalue { ptr, i32 } %13, 0
  call void @__clang_call_terminate(ptr %14) #22
  unreachable
}

; Function Attrs: inlinehint mustprogress nounwind uwtable
define linkonce_odr void @_ZNSt13unordered_mapINSt7__cxx1112basic_stringIcSt11char_traitsIcESaIcEEES5_St4hashIS5_ESt8equal_toIS5_ESaISt4pairIKS5_S5_EEED2Ev(ptr noundef nonnull align 8 dereferenceable(56) %0) unnamed_addr #5 comdat align 2 {
  %2 = alloca ptr, align 8
  store ptr %0, ptr %2, align 8, !tbaa !522
  %3 = load ptr, ptr %2, align 8
  %4 = getelementptr inbounds nuw %"class.std::unordered_map", ptr %3, i32 0, i32 0
  call void @_ZNSt10_HashtableINSt7__cxx1112basic_stringIcSt11char_traitsIcESaIcEEESt4pairIKS5_S5_ESaIS8_ENSt8__detail10_Select1stESt8equal_toIS5_ESt4hashIS5_ENSA_18_Mod_range_hashingENSA_20_Default_ranged_hashENSA_20_Prime_rehash_policyENSA_17_Hashtable_traitsILb1ELb0ELb1EEEED2Ev(ptr noundef nonnull align 8 dereferenceable(56) %4) #21
  ret void
}

; Function Attrs: inlinehint mustprogress nounwind uwtable
define internal void @_ZN5arrow3ipc8internal12_GLOBAL__N_124FieldToFlatbufferVisitorD2Ev(ptr noundef nonnull align 8 dereferenceable(120) %0) unnamed_addr #5 align 2 {
  %2 = alloca ptr, align 8
  store ptr %0, ptr %2, align 8, !tbaa !503
  %3 = load ptr, ptr %2, align 8
  %4 = getelementptr inbounds nuw %"class.arrow::ipc::internal::(anonymous namespace)::FieldToFlatbufferVisitor", ptr %3, i32 0, i32 6
  call void @_ZNSt13unordered_mapINSt7__cxx1112basic_stringIcSt11char_traitsIcESaIcEEES5_St4hashIS5_ESt8equal_toIS5_ESaISt4pairIKS5_S5_EEED2Ev(ptr noundef nonnull align 8 dereferenceable(56) %4) #21
  %5 = getelementptr inbounds nuw %"class.arrow::ipc::internal::(anonymous namespace)::FieldToFlatbufferVisitor", ptr %3, i32 0, i32 5
  call void @_ZNSt6vectorIN22arrow_vendored_private11flatbuffers6OffsetIN3org6apache5arrow7flatbuf5FieldEEESaIS8_EED2Ev(ptr noundef nonnull align 8 dereferenceable(24) %5) #21
  ret void
}