; Function Attrs: inlinehint mustprogress nounwind uwtable
define internal fastcc void @_ZN5arrow3ipc8internal12_GLOBAL__N_124FieldToFlatbufferVisitorD2Ev(ptr noundef nonnull align 8 dereferenceable(120) %0) unnamed_addr #16 align 2 personality ptr @__gxx_personality_v0 {
  %2 = getelementptr inbounds nuw i8, ptr %0, i64 64
  tail call void @_ZNSt10_HashtableINSt7__cxx1112basic_stringIcSt11char_traitsIcESaIcEEESt4pairIKS5_S5_ESaIS8_ENSt8__detail10_Select1stESt8equal_toIS5_ESt4hashIS5_ENSA_18_Mod_range_hashingENSA_20_Default_ranged_hashENSA_20_Prime_rehash_policyENSA_17_Hashtable_traitsILb1ELb0ELb1EEEED2Ev(ptr noundef nonnull align 8 dereferenceable(56) %2) #21
  %3 = getelementptr inbounds nuw i8, ptr %0, i64 40
  %4 = load ptr, ptr %3, align 8, !tbaa !373
  %.not.i.i.i = icmp eq ptr %4, null
  br i1 %.not.i.i.i, label %_ZNSt6vectorIN22arrow_vendored_private11flatbuffers6OffsetIN3org6apache5arrow7flatbuf5FieldEEESaIS8_EED2Ev.exit, label %5

5:                                                ; preds = %1
  %6 = getelementptr inbounds nuw i8, ptr %0, i64 56
  %7 = load ptr, ptr %6, align 8, !tbaa !376
  %8 = ptrtoint ptr %7 to i64
  %9 = ptrtoint ptr %4 to i64
  %10 = sub i64 %8, %9
  tail call void @_ZdlPvm(ptr noundef nonnull %4, i64 noundef %10) #22
  br label %_ZNSt6vectorIN22arrow_vendored_private11flatbuffers6OffsetIN3org6apache5arrow7flatbuf5FieldEEESaIS8_EED2Ev.exit

_ZNSt6vectorIN22arrow_vendored_private11flatbuffers6OffsetIN3org6apache5arrow7flatbuf5FieldEEESaIS8_EED2Ev.exit: ; preds = %1, %5
  ret void
}